; ModuleID = '15/614.c'
source_filename = "15/614.c"
target datalayout = "e-m:e-p270:32:32-p271:32:32-p272:64:64-i64:64-f80:128-n8:16:32:64-S128"
target triple = "x86_64-pc-linux-gnu"

@.str = private unnamed_addr constant [3 x i8] c"%d\00", align 1
@.str.1 = private unnamed_addr constant [4 x i8] c"%ld\00", align 1

; Function Attrs: noinline nounwind uwtable
define dso_local i32 @main() #0 {
  %1 = alloca i32, align 4
  %2 = alloca i32, align 4
  %3 = alloca i32, align 4
  %4 = alloca i32, align 4
  %5 = alloca i32, align 4
  %6 = alloca i32, align 4
  %7 = alloca i32, align 4
  %8 = alloca i64, align 8
  store i32 0, i32* %1, align 4
  %9 = call i32 (i8*, ...) @__isoc99_scanf(i8* getelementptr inbounds ([3 x i8], [3 x i8]* @.str, i64 0, i64 0), i32* %6)
  store i32 0, i32* %3, align 4
  store i32 0, i32* %4, align 4
  store i32 0, i32* %5, align 4
  store i32 0, i32* %7, align 4
  br label %10

10:                                               ; preds = %42, %0
  %11 = call i32 (i8*, ...) @__isoc99_scanf(i8* getelementptr inbounds ([3 x i8], [3 x i8]* @.str, i64 0, i64 0), i32* %2)
  %12 = load i32, i32* %7, align 4
  %13 = add nsw i32 %12, 1
  store i32 %13, i32* %7, align 4
  %14 = load i32, i32* %2, align 4
  %15 = icmp eq i32 %14, 0
  br i1 %15, label %16, label %25

16:                                               ; preds = %10
  %17 = load i32, i32* %5, align 4
  %18 = icmp eq i32 %17, 0
  br i1 %18, label %19, label %25

19:                                               ; preds = %16
  %20 = load i32, i32* %4, align 4
  %21 = icmp eq i32 %20, 0
  br i1 %21, label %22, label %25

22:                                               ; preds = %19
  %23 = load i32, i32* %3, align 4
  %24 = add nsw i32 %23, 1
  store i32 %24, i32* %3, align 4
  br label %25

25:                                               ; preds = %22, %19, %16, %10
  %26 = load i32, i32* %4, align 4
  %27 = icmp eq i32 %26, 1
  br i1 %27, label %28, label %34

28:                                               ; preds = %25
  %29 = load i32, i32* %2, align 4
  %30 = icmp eq i32 %29, 0
  br i1 %30, label %31, label %34

31:                                               ; preds = %28
  %32 = load i32, i32* %5, align 4
  %33 = add nsw i32 %32, 1
  store i32 %33, i32* %5, align 4
  br label %34

34:                                               ; preds = %31, %28, %25
  %35 = load i32, i32* %2, align 4
  %36 = icmp ne i32 %35, 0
  br i1 %36, label %37, label %41

37:                                               ; preds = %34
  %38 = load i32, i32* %3, align 4
  %39 = icmp ne i32 %38, 0
  br i1 %39, label %40, label %41

40:                                               ; preds = %37
  store i32 1, i32* %4, align 4
  br label %41

41:                                               ; preds = %40, %37, %34
  br label %42

42:                                               ; preds = %41
  %43 = load i32, i32* %7, align 4
  %44 = load i32, i32* %6, align 4
  %45 = load i32, i32* %6, align 4
  %46 = mul nsw i32 %44, %45
  %47 = icmp slt i32 %43, %46
  br i1 %47, label %10, label %48

48:                                               ; preds = %42
  %49 = load i32, i32* %3, align 4
  %50 = sub nsw i32 %49, 2
  %51 = load i32, i32* %5, align 4
  %52 = load i32, i32* %3, align 4
  %53 = sub nsw i32 %52, 2
  %54 = sub nsw i32 %51, %53
  %55 = sdiv i32 %54, 2
  %56 = sub nsw i32 %55, 1
  %57 = mul nsw i32 %50, %56
  %58 = sext i32 %57 to i64
  store i64 %58, i64* %8, align 8
  %59 = load i64, i64* %8, align 8
  %60 = call i32 (i8*, ...) @printf(i8* getelementptr inbounds ([4 x i8], [4 x i8]* @.str.1, i64 0, i64 0), i64 %59)
  ret i32 0
}

declare dso_local i32 @__isoc99_scanf(i8*, ...) #1

declare dso_local i32 @printf(i8*, ...) #1


!llvm.module.flags = !{!0}
!llvm.ident = !{!1}

!0 = !{i32 1, !"wchar_size", i32 4}
!1 = !{!"clang version 10.0.0-4ubuntu1 "}
